target datalayout = "e-m:e-p270:32:32-p271:32:32-p272:64:64-i64:64-i128:128-f80:128-n8:16:32:64-S128"
target triple = "x86_64-pc-linux-gnu"

%struct.ForBothState = type { ptr, ptr, i32 }
%struct.List = type { i32, i32, i32, ptr, [0 x %union.ListCell] }
%union.ListCell = type { ptr }

; Function Attrs: inlinehint nounwind uwtable
define internal i32 @pg_cmp_s32(i32 noundef %0, i32 noundef %1) #2 {
  %3 = alloca i32, align 4
  %4 = alloca i32, align 4
  store i32 %0, ptr %3, align 4
  store i32 %1, ptr %4, align 4
  %5 = load i32, ptr %3, align 4
  %6 = load i32, ptr %4, align 4
  %7 = icmp sgt i32 %5, %6
  %8 = zext i1 %7 to i32
  %9 = load i32, ptr %3, align 4
  %10 = load i32, ptr %4, align 4
  %11 = icmp slt i32 %9, %10
  %12 = zext i1 %11 to i32
  %13 = sub i32 %8, %12
  ret i32 %13
}

; Function Attrs: inlinehint nounwind uwtable
define internal i32 @list_length(ptr noundef %0) #2 {
  %2 = alloca ptr, align 8
  store ptr %0, ptr %2, align 8
  %3 = load ptr, ptr %2, align 8
  %4 = icmp ne ptr %3, null
  br i1 %4, label %5, label %9

5:                                                ; preds = %1
  %6 = load ptr, ptr %2, align 8
  %7 = getelementptr inbounds nuw %struct.List, ptr %6, i32 0, i32 1
  %8 = load i32, ptr %7, align 4
  br label %10

9:                                                ; preds = %1
  br label %10

10:                                               ; preds = %9, %5
  %11 = phi i32 [ %8, %5 ], [ 0, %9 ]
  ret i32 %11
}

; Function Attrs: nounwind uwtable
define internal i32 @cmp_list_len_asc(ptr noundef %0, ptr noundef %1) #0 {
  %3 = alloca ptr, align 8
  %4 = alloca ptr, align 8
  %5 = alloca i32, align 4
  %6 = alloca i32, align 4
  store ptr %0, ptr %3, align 8
  store ptr %1, ptr %4, align 8
  call void @llvm.lifetime.start.p0(i64 4, ptr %5) #7
  %7 = load ptr, ptr %3, align 8
  %8 = load ptr, ptr %7, align 8
  %9 = call i32 @list_length(ptr noundef %8)
  store i32 %9, ptr %5, align 4
  call void @llvm.lifetime.start.p0(i64 4, ptr %6) #7
  %10 = load ptr, ptr %4, align 8
  %11 = load ptr, ptr %10, align 8
  %12 = call i32 @list_length(ptr noundef %11)
  store i32 %12, ptr %6, align 4
  %13 = load i32, ptr %5, align 4
  %14 = load i32, ptr %6, align 4
  %15 = call i32 @pg_cmp_s32(i32 noundef %13, i32 noundef %14)
  call void @llvm.lifetime.end.p0(i64 4, ptr %6) #7
  call void @llvm.lifetime.end.p0(i64 4, ptr %5) #7
  ret i32 %15
}

; Function Attrs: nounwind uwtable
define internal i32 @cmp_list_len_contents_asc(ptr noundef %0, ptr noundef %1) #0 {
  %3 = alloca i32, align 4
  %4 = alloca ptr, align 8
  %5 = alloca ptr, align 8
  %6 = alloca i32, align 4
  %7 = alloca ptr, align 8
  %8 = alloca ptr, align 8
  %9 = alloca ptr, align 8
  %10 = alloca ptr, align 8
  %11 = alloca %struct.ForBothState, align 8
  %12 = alloca i32, align 4
  %13 = alloca i32, align 4
  %14 = alloca i32, align 4
  store ptr %0, ptr %4, align 8
  store ptr %1, ptr %5, align 8
  call void @llvm.lifetime.start.p0(i64 4, ptr %6) #7
  %15 = load ptr, ptr %4, align 8
  %16 = load ptr, ptr %5, align 8
  %17 = call i32 @cmp_list_len_asc(ptr noundef %15, ptr noundef %16)
  store i32 %17, ptr %6, align 4
  %18 = load i32, ptr %6, align 4
  %19 = icmp eq i32 %18, 0
  br i1 %19, label %20, label %114

20:                                               ; preds = %2
  call void @llvm.lifetime.start.p0(i64 8, ptr %7) #7
  %21 = load ptr, ptr %4, align 8
  %22 = load ptr, ptr %21, align 8
  store ptr %22, ptr %7, align 8
  call void @llvm.lifetime.start.p0(i64 8, ptr %8) #7
  %23 = load ptr, ptr %5, align 8
  %24 = load ptr, ptr %23, align 8
  store ptr %24, ptr %8, align 8
  call void @llvm.lifetime.start.p0(i64 8, ptr %9) #7
  call void @llvm.lifetime.start.p0(i64 8, ptr %10) #7
  call void @llvm.lifetime.start.p0(i64 24, ptr %11) #7
  %25 = getelementptr inbounds nuw %struct.ForBothState, ptr %11, i32 0, i32 0
  %26 = load ptr, ptr %7, align 8
  store ptr %26, ptr %25, align 8
  %27 = getelementptr inbounds nuw %struct.ForBothState, ptr %11, i32 0, i32 1
  %28 = load ptr, ptr %8, align 8
  store ptr %28, ptr %27, align 8
  %29 = getelementptr inbounds nuw %struct.ForBothState, ptr %11, i32 0, i32 2
  store i32 0, ptr %29, align 8
  %30 = getelementptr i8, ptr %11, i64 20
  call void @llvm.memset.p0.i64(ptr align 4 %30, i8 0, i64 4, i1 false)
  br label %31

31:                                               ; preds = %104, %20
  %32 = getelementptr inbounds nuw %struct.ForBothState, ptr %11, i32 0, i32 0
  %33 = load ptr, ptr %32, align 8
  %34 = icmp ne ptr %33, null
  br i1 %34, label %35, label %52

35:                                               ; preds = %31
  %36 = getelementptr inbounds nuw %struct.ForBothState, ptr %11, i32 0, i32 2
  %37 = load i32, ptr %36, align 8
  %38 = getelementptr inbounds nuw %struct.ForBothState, ptr %11, i32 0, i32 0
  %39 = load ptr, ptr %38, align 8
  %40 = getelementptr inbounds nuw %struct.List, ptr %39, i32 0, i32 1
  %41 = load i32, ptr %40, align 4
  %42 = icmp slt i32 %37, %41
  br i1 %42, label %43, label %52

43:                                               ; preds = %35
  %44 = getelementptr inbounds nuw %struct.ForBothState, ptr %11, i32 0, i32 0
  %45 = load ptr, ptr %44, align 8
  %46 = getelementptr inbounds nuw %struct.List, ptr %45, i32 0, i32 3
  %47 = load ptr, ptr %46, align 8
  %48 = getelementptr inbounds nuw %struct.ForBothState, ptr %11, i32 0, i32 2
  %49 = load i32, ptr %48, align 8
  %50 = sext i32 %49 to i64
  %51 = getelementptr inbounds %union.ListCell, ptr %47, i64 %50
  br label %53

52:                                               ; preds = %35, %31
  br label %53

53:                                               ; preds = %52, %43
  %54 = phi ptr [ %51, %43 ], [ null, %52 ]
  store ptr %54, ptr %9, align 8
  %55 = getelementptr inbounds nuw %struct.ForBothState, ptr %11, i32 0, i32 1
  %56 = load ptr, ptr %55, align 8
  %57 = icmp ne ptr %56, null
  br i1 %57, label %58, label %75

58:                                               ; preds = %53
  %59 = getelementptr inbounds nuw %struct.ForBothState, ptr %11, i32 0, i32 2
  %60 = load i32, ptr %59, align 8
  %61 = getelementptr inbounds nuw %struct.ForBothState, ptr %11, i32 0, i32 1
  %62 = load ptr, ptr %61, align 8
  %63 = getelementptr inbounds nuw %struct.List, ptr %62, i32 0, i32 1
  %64 = load i32, ptr %63, align 4
  %65 = icmp slt i32 %60, %64
  br i1 %65, label %66, label %75

66:                                               ; preds = %58
  %67 = getelementptr inbounds nuw %struct.ForBothState, ptr %11, i32 0, i32 1
  %68 = load ptr, ptr %67, align 8
  %69 = getelementptr inbounds nuw %struct.List, ptr %68, i32 0, i32 3
  %70 = load ptr, ptr %69, align 8
  %71 = getelementptr inbounds nuw %struct.ForBothState, ptr %11, i32 0, i32 2
  %72 = load i32, ptr %71, align 8
  %73 = sext i32 %72 to i64
  %74 = getelementptr inbounds %union.ListCell, ptr %70, i64 %73
  br label %76

75:                                               ; preds = %58, %53
  br label %76

76:                                               ; preds = %75, %66
  %77 = phi ptr [ %74, %66 ], [ null, %75 ]
  store ptr %77, ptr %10, align 8
  %78 = load ptr, ptr %9, align 8
  %79 = icmp ne ptr %78, null
  br i1 %79, label %80, label %83

80:                                               ; preds = %76
  %81 = load ptr, ptr %10, align 8
  %82 = icmp ne ptr %81, null
  br label %83

83:                                               ; preds = %80, %76
  %84 = phi i1 [ false, %76 ], [ %82, %80 ]
  br i1 %84, label %86, label %85

85:                                               ; preds = %83
  store i32 2, ptr %12, align 4
  br label %108

86:                                               ; preds = %83
  call void @llvm.lifetime.start.p0(i64 4, ptr %13) #7
  %87 = load ptr, ptr %9, align 8
  %88 = load i32, ptr %87, align 8
  store i32 %88, ptr %13, align 4
  call void @llvm.lifetime.start.p0(i64 4, ptr %14) #7
  %89 = load ptr, ptr %10, align 8
  %90 = load i32, ptr %89, align 8
  store i32 %90, ptr %14, align 4
  %91 = load i32, ptr %13, align 4
  %92 = load i32, ptr %14, align 4
  %93 = icmp sgt i32 %91, %92
  br i1 %93, label %94, label %95

94:                                               ; preds = %86
  store i32 1, ptr %3, align 4
  store i32 1, ptr %12, align 4
  br label %101

95:                                               ; preds = %86
  %96 = load i32, ptr %13, align 4
  %97 = load i32, ptr %14, align 4
  %98 = icmp slt i32 %96, %97
  br i1 %98, label %99, label %100

99:                                               ; preds = %95
  store i32 -1, ptr %3, align 4
  store i32 1, ptr %12, align 4
  br label %101

100:                                              ; preds = %95
  store i32 0, ptr %12, align 4
  br label %101

101:                                              ; preds = %100, %99, %94
  call void @llvm.lifetime.end.p0(i64 4, ptr %14) #7
  call void @llvm.lifetime.end.p0(i64 4, ptr %13) #7
  %102 = load i32, ptr %12, align 4
  switch i32 %102, label %108 [
    i32 0, label %103
  ]

103:                                              ; preds = %101
  br label %104

104:                                              ; preds = %103
  %105 = getelementptr inbounds nuw %struct.ForBothState, ptr %11, i32 0, i32 2
  %106 = load i32, ptr %105, align 8
  %107 = add i32 %106, 1
  store i32 %107, ptr %105, align 8
  br label %31, !llvm.loop !32

108:                                              ; preds = %101, %85
  call void @llvm.lifetime.end.p0(i64 24, ptr %11) #7
  %109 = load i32, ptr %12, align 4
  switch i32 %109, label %111 [
    i32 2, label %110
  ]

110:                                              ; preds = %108
  store i32 0, ptr %12, align 4
  br label %111

111:                                              ; preds = %110, %108
  call void @llvm.lifetime.end.p0(i64 8, ptr %10) #7
  call void @llvm.lifetime.end.p0(i64 8, ptr %9) #7
  call void @llvm.lifetime.end.p0(i64 8, ptr %8) #7
  call void @llvm.lifetime.end.p0(i64 8, ptr %7) #7
  %112 = load i32, ptr %12, align 4
  switch i32 %112, label %116 [
    i32 0, label %113
  ]

113:                                              ; preds = %111
  br label %114

114:                                              ; preds = %113, %2
  %115 = load i32, ptr %6, align 4
  store i32 %115, ptr %3, align 4
  store i32 1, ptr %12, align 4
  br label %116

116:                                              ; preds = %114, %111
  call void @llvm.lifetime.end.p0(i64 4, ptr %6) #7
  %117 = load i32, ptr %3, align 4
  ret i32 %117
}