; Function Attrs: nofree norecurse nosync nounwind memory(read, inaccessiblemem: none) uwtable
define internal i32 @cmp_list_len_contents_asc(ptr noundef readonly captures(none) %0, ptr noundef readonly captures(none) %1) #6 {
  %3 = load ptr, ptr %0, align 8
  %.not.i.i = icmp eq ptr %3, null
  br i1 %.not.i.i, label %list_length.exit.i.thread, label %list_length.exit.i

list_length.exit.i:                               ; preds = %2
  %4 = getelementptr inbounds nuw i8, ptr %3, i64 4
  %5 = load i32, ptr %4, align 4
  %6 = load ptr, ptr %1, align 8
  %.not.i3.i = icmp eq ptr %6, null
  br i1 %.not.i3.i, label %cmp_list_len_asc.exit, label %cmp_list_len_asc.exit.thread

list_length.exit.i.thread:                        ; preds = %2
  %7 = load ptr, ptr %1, align 8
  %.not.i3.i55 = icmp eq ptr %7, null
  br i1 %.not.i3.i55, label %.thread43, label %cmp_list_len_asc.exit.thread.thread

cmp_list_len_asc.exit:                            ; preds = %list_length.exit.i
  %8 = tail call range(i32 -1, 2) i32 @llvm.scmp.i32.i32(i32 %5, i32 0)
  br label %.thread43

cmp_list_len_asc.exit.thread:                     ; preds = %list_length.exit.i
  %9 = getelementptr inbounds nuw i8, ptr %6, i64 4
  %10 = load i32, ptr %9, align 4
  %11 = tail call range(i32 -1, 2) i32 @llvm.scmp.i32.i32(i32 %5, i32 %10)
  %12 = icmp eq i32 %5, %10
  br i1 %12, label %.preheader.split.split, label %.thread43

cmp_list_len_asc.exit.thread.thread:              ; preds = %list_length.exit.i.thread
  %13 = getelementptr inbounds nuw i8, ptr %7, i64 4
  %14 = load i32, ptr %13, align 4
  %15 = tail call range(i32 -1, 2) i32 @llvm.scmp.i32.i32(i32 0, i32 %14)
  br label %.thread43

.preheader.split.split:                           ; preds = %cmp_list_len_asc.exit.thread
  %16 = getelementptr inbounds nuw i8, ptr %3, i64 4
  %17 = getelementptr inbounds nuw i8, ptr %3, i64 16
  %18 = getelementptr inbounds nuw i8, ptr %6, i64 16
  %19 = getelementptr inbounds nuw i8, ptr %6, i64 4
  %20 = load i32, ptr %19, align 4
  %21 = load i32, ptr %16, align 4
  %22 = sext i32 %21 to i64
  %smax = tail call i32 @llvm.smax.i32(i32 %20, i32 0)
  %wide.trip.count = zext nneg i32 %smax to i64
  br label %23

23:                                               ; preds = %39, %.preheader.split.split
  %indvars.iv = phi i64 [ %indvars.iv.next, %39 ], [ 0, %.preheader.split.split ]
  %24 = icmp slt i64 %indvars.iv, %22
  br i1 %24, label %25, label %28

25:                                               ; preds = %23
  %26 = load ptr, ptr %17, align 8
  %27 = getelementptr inbounds nuw %union.ListCell, ptr %26, i64 %indvars.iv
  br label %28

28:                                               ; preds = %23, %25
  %29 = phi ptr [ %27, %25 ], [ null, %23 ]
  %exitcond.not = icmp eq i64 %indvars.iv, %wide.trip.count
  br i1 %exitcond.not, label %.thread43, label %30

30:                                               ; preds = %28
  %31 = load ptr, ptr %18, align 8
  %32 = icmp eq ptr %29, null
  %33 = icmp eq ptr %31, null
  %.not40 = select i1 %32, i1 true, i1 %33
  br i1 %.not40, label %.thread43, label %34

34:                                               ; preds = %30
  %35 = getelementptr inbounds nuw %union.ListCell, ptr %31, i64 %indvars.iv
  %36 = load i32, ptr %29, align 8
  %37 = load i32, ptr %35, align 8
  %38 = icmp sgt i32 %36, %37
  br i1 %38, label %.thread43, label %39

39:                                               ; preds = %34
  %.not = icmp slt i32 %36, %37
  %indvars.iv.next = add nuw nsw i64 %indvars.iv, 1
  br i1 %.not, label %.thread43, label %23, !llvm.loop !17

.thread43:                                        ; preds = %28, %30, %34, %39, %cmp_list_len_asc.exit.thread.thread, %cmp_list_len_asc.exit, %list_length.exit.i.thread, %cmp_list_len_asc.exit.thread
  %.3 = phi i32 [ %11, %cmp_list_len_asc.exit.thread ], [ 0, %list_length.exit.i.thread ], [ %8, %cmp_list_len_asc.exit ], [ %15, %cmp_list_len_asc.exit.thread.thread ], [ %11, %28 ], [ %11, %30 ], [ 1, %34 ], [ -1, %39 ]
  ret i32 %.3
}